; Function Attrs: mustprogress uwtable
define void @_ZN5faiss10IndexIVFPQC2Ev(ptr noundef nonnull align 8 dereferenceable(544) %0) unnamed_addr #2 align 2 personality ptr @__gxx_personality_v0 {
  tail call void @_ZN5faiss8IndexIVFC2Ev(ptr noundef nonnull align 8 dereferenceable(265) %0)
  store ptr getelementptr inbounds nuw inrange(-16, 272) (i8, ptr @_ZTVN5faiss10IndexIVFPQE, i64 16), ptr %0, align 8, !tbaa !4
  %2 = getelementptr inbounds nuw i8, ptr %0, i64 40
  store ptr getelementptr inbounds nuw inrange(-16, 32) (i8, ptr @_ZTVN5faiss10IndexIVFPQE, i64 304), ptr %2, align 8, !tbaa !4
  %3 = getelementptr inbounds nuw i8, ptr %0, i64 272
  invoke void @_ZN5faiss16ProductQuantizerC1Ev(ptr noundef nonnull align 8 dereferenceable(216) %3)
          to label %4 unwind label %7

4:                                                ; preds = %1
  %5 = getelementptr inbounds nuw i8, ptr %0, i64 488
  store i8 0, ptr %5, align 8, !tbaa !56
  %6 = getelementptr inbounds nuw i8, ptr %0, i64 496
  tail call void @llvm.memset.p0.i64(ptr noundef nonnull align 8 dereferenceable(48) %6, i8 0, i64 48, i1 false)
  ret void

7:                                                ; preds = %1
  %8 = landingpad { ptr, i32 }
          cleanup
  tail call void @_ZN5faiss8IndexIVFD2Ev(ptr noundef nonnull align 8 dereferenceable(265) %0) #17
  resume { ptr, i32 } %8
}